target datalayout = "e-m:e-p270:32:32-p271:32:32-p272:64:64-i64:64-i128:128-f80:128-n8:16:32:64-S128"
target triple = "x86_64-unknown-linux-gnu"

module asm ".section \22.export_symbol\22,\22a\22 ; __export_symbol_icmpv6_ndo_send: ; .asciz \22\22 ; .asciz \22\22 ; .balign 8 ; .quad icmpv6_ndo_send ; .previous"

%struct.inet6_skb_parm = type { i32, i16, i16, i16, i16, i16, i16, i16, i16, i16 }

@__UNIQUE_ID___addressable_icmpv6_ndo_send835 = internal global ptr @icmpv6_ndo_send, section ".discard.addressable", align 8
@llvm.compiler.used = appending global [1 x ptr] [ptr @__UNIQUE_ID___addressable_icmpv6_ndo_send835], section "llvm.metadata"

; Function Attrs: fn_ret_thunk_extern nounwind null_pointer_is_valid
define dso_local void @icmpv6_ndo_send(ptr noundef %0, i8 noundef zeroext %1, i8 noundef zeroext %2, i32 noundef %3) #0 align 16 {
  %5 = alloca %struct.inet6_skb_parm, align 4
  %6 = alloca [4 x i32], align 4
  call void @llvm.lifetime.start.p0(i64 24, ptr nonnull %5) #5
  call void @llvm.memset.p0.i64(ptr noundef nonnull align 4 dereferenceable(24) %5, i8 0, i64 24, i1 false)
  call void @llvm.lifetime.start.p0(i64 16, ptr nonnull %6)
  call void @llvm.memset.p0.i64(ptr noundef nonnull align 4 dereferenceable(16) %6, i8 0, i64 16, i1 false)
  %7 = getelementptr inbounds i8, ptr %0, i64 104
  %8 = load i64, ptr %7, align 8
  %9 = and i64 %8, -8
  %10 = inttoptr i64 %9 to ptr
  %11 = icmp eq i64 %9, 0
  br i1 %11, label %17, label %12

12:                                               ; preds = %4
  %13 = getelementptr inbounds i8, ptr %10, i64 128
  %14 = load i64, ptr %13, align 8
  %15 = and i64 %14, 16
  %16 = icmp eq i64 %15, 0
  br i1 %16, label %17, label %18

17:                                               ; preds = %12, %4
  call void @icmp6_send(ptr noundef %0, i8 noundef zeroext %1, i8 noundef zeroext %2, i32 noundef %3, ptr noundef null, ptr noundef nonnull %5) #5
  br label %66

18:                                               ; preds = %12
  %19 = getelementptr inbounds i8, ptr %0, i64 212
  %20 = load volatile i32, ptr %19, align 4
  %21 = icmp eq i32 %20, 1
  br i1 %21, label %24, label %22

22:                                               ; preds = %18
  %23 = tail call ptr @skb_clone(ptr noundef %0, i32 noundef 2080) #5
  br label %24

24:                                               ; preds = %22, %18
  %25 = phi ptr [ %23, %22 ], [ %0, %18 ]
  %26 = phi ptr [ %23, %22 ], [ null, %18 ]
  %27 = icmp eq ptr %25, null
  br i1 %27, label %65, label %28, !prof !5

28:                                               ; preds = %24
  %29 = getelementptr inbounds i8, ptr %25, i64 192
  %30 = load ptr, ptr %29, align 8
  %31 = getelementptr inbounds i8, ptr %25, i64 180
  %32 = load i16, ptr %31, align 4
  %33 = zext i16 %32 to i64
  %34 = getelementptr i8, ptr %30, i64 %33
  %35 = icmp ult ptr %34, %30
  br i1 %35, label %65, label %36, !prof !5

36:                                               ; preds = %28
  %37 = getelementptr i8, ptr %34, i64 40
  %38 = getelementptr inbounds i8, ptr %25, i64 184
  %39 = load i32, ptr %38, align 8
  %40 = zext i32 %39 to i64
  %41 = getelementptr i8, ptr %30, i64 %40
  %42 = icmp ugt ptr %37, %41
  br i1 %42, label %65, label %43, !prof !5

43:                                               ; preds = %36
  %44 = getelementptr inbounds i8, ptr %25, i64 200
  %45 = load ptr, ptr %44, align 8
  %46 = ptrtoint ptr %34 to i64
  %47 = ptrtoint ptr %45 to i64
  %48 = sub i64 %46, %47
  %49 = trunc i64 %48 to i32
  %50 = add i32 %49, 40
  %51 = tail call i32 @skb_ensure_writable(ptr noundef nonnull %25, i32 noundef %50) #5
  %52 = icmp eq i32 %51, 0
  br i1 %52, label %53, label %65, !prof !6

53:                                               ; preds = %43
  %54 = load ptr, ptr %29, align 8
  %55 = load i16, ptr %31, align 4
  %56 = zext i16 %55 to i64
  %57 = getelementptr i8, ptr %54, i64 %56
  %58 = getelementptr inbounds i8, ptr %57, i64 8
  call void @llvm.memcpy.p0.p0.i64(ptr noundef nonnull align 4 dereferenceable(16) %6, ptr noundef align 4 dereferenceable(16) %58, i64 16, i1 false)
  %59 = getelementptr inbounds i8, ptr %10, i64 32
  tail call void @llvm.memcpy.p0.p0.i64(ptr noundef align 4 dereferenceable(16) %58, ptr noundef align 8 dereferenceable(16) %59, i64 16, i1 false)
  call void @icmp6_send(ptr noundef nonnull %25, i8 noundef zeroext %1, i8 noundef zeroext %2, i32 noundef %3, ptr noundef null, ptr noundef nonnull %5) #5
  %60 = load ptr, ptr %29, align 8
  %61 = load i16, ptr %31, align 4
  %62 = zext i16 %61 to i64
  %63 = getelementptr i8, ptr %60, i64 %62
  %64 = getelementptr inbounds i8, ptr %63, i64 8
  call void @llvm.memcpy.p0.p0.i64(ptr noundef align 4 dereferenceable(16) %64, ptr noundef nonnull align 4 dereferenceable(16) %6, i64 16, i1 false)
  br label %65

65:                                               ; preds = %53, %43, %36, %28, %24
  call void @consume_skb(ptr noundef %26) #5
  br label %66

66:                                               ; preds = %65, %17
  call void @llvm.lifetime.end.p0(i64 16, ptr nonnull %6)
  call void @llvm.lifetime.end.p0(i64 24, ptr nonnull %5) #5
  ret void
}

; Function Attrs: nocallback nofree nosync nounwind willreturn memory(argmem: readwrite)
declare void @llvm.lifetime.start.p0(i64 immarg, ptr nocapture) #1

; Function Attrs: nocallback nofree nounwind willreturn memory(argmem: write)
declare void @llvm.memset.p0.i64(ptr nocapture writeonly, i8, i64, i1 immarg) #2

; Function Attrs: null_pointer_is_valid
declare dso_local ptr @skb_clone(ptr noundef, i32 noundef) local_unnamed_addr #3

; Function Attrs: null_pointer_is_valid
declare dso_local i32 @skb_ensure_writable(ptr noundef, i32 noundef) local_unnamed_addr #3

; Function Attrs: nocallback nofree nounwind willreturn memory(argmem: readwrite)
declare void @llvm.memcpy.p0.p0.i64(ptr noalias nocapture writeonly, ptr noalias nocapture readonly, i64, i1 immarg) #4

; Function Attrs: null_pointer_is_valid
declare dso_local void @consume_skb(ptr noundef) local_unnamed_addr #3

; Function Attrs: nocallback nofree nosync nounwind willreturn memory(argmem: readwrite)
declare void @llvm.lifetime.end.p0(i64 immarg, ptr nocapture) #1

; Function Attrs: null_pointer_is_valid
declare dso_local void @icmp6_send(ptr noundef, i8 noundef zeroext, i8 noundef zeroext, i32 noundef, ptr noundef, ptr noundef) local_unnamed_addr #3


!llvm.module.flags = !{!0, !1, !2, !3, !4}

!0 = !{i32 1, !"wchar_size", i32 2}
!1 = !{i32 8, !"cf-protection-branch", i32 1}
!2 = !{i32 4, !"function_return_thunk_extern", i32 1}
!3 = !{i32 4, !"indirect_branch_cs_prefix", i32 1}
!4 = !{i32 4, !"SkipRaxSetup", i32 1}
!5 = !{!"branch_weights", i32 1, i32 2000}
!6 = !{!"branch_weights", i32 2000, i32 1}
